; Function Attrs: nounwind uwtable
define void @jinit_huff_encoder(ptr noundef %0) local_unnamed_addr #0 {
  %2 = getelementptr inbounds nuw i8, ptr %0, i64 8
  %3 = load ptr, ptr %2, align 8, !tbaa !31
  %4 = load ptr, ptr %3, align 8, !tbaa !32
  %5 = tail call ptr %4(ptr noundef %0, i32 noundef 1, i64 noundef 208) #6
  %6 = getelementptr inbounds nuw i8, ptr %0, i64 496
  store ptr %5, ptr %6, align 8, !tbaa !57
  store ptr @start_pass_huff, ptr %5, align 8, !tbaa !58
  %7 = getelementptr inbounds nuw i8, ptr %5, i64 104
  %8 = getelementptr inbounds nuw i8, ptr %5, i64 72
  %9 = getelementptr inbounds nuw i8, ptr %5, i64 168
  %10 = getelementptr inbounds nuw i8, ptr %5, i64 136
  tail call void @llvm.memset.p0.i64(ptr noundef nonnull align 8 dereferenceable(32) %8, i8 0, i64 32, i1 false), !tbaa !30
  br label %11

11:                                               ; preds = %1, %11
  %indvars.iv = phi i64 [ 0, %1 ], [ %indvars.iv.next, %11 ]
  %12 = getelementptr inbounds nuw [4 x ptr], ptr %7, i64 0, i64 %indvars.iv
  store ptr null, ptr %12, align 8, !tbaa !30
  %13 = getelementptr inbounds nuw [4 x ptr], ptr %9, i64 0, i64 %indvars.iv
  store ptr null, ptr %13, align 8, !tbaa !62
  %14 = getelementptr inbounds nuw [4 x ptr], ptr %10, i64 0, i64 %indvars.iv
  store ptr null, ptr %14, align 8, !tbaa !62
  %indvars.iv.next = add nuw nsw i64 %indvars.iv, 1
  %exitcond.not = icmp eq i64 %indvars.iv.next, 4
  br i1 %exitcond.not, label %15, label %11, !llvm.loop !64

15:                                               ; preds = %11
  ret void
}